target datalayout = "e-m:e-p270:32:32-p271:32:32-p272:64:64-i64:64-i128:128-f80:128-n8:16:32:64-S128"
target triple = "x86_64-unknown-linux-gnu"

%"struct.rocksdb::(anonymous namespace)::Dummy" = type { [7 x i8] }
%"class.std::shared_ptr" = type { %"class.std::__shared_ptr" }
%"class.std::__shared_ptr" = type { ptr, %"class.std::__shared_count" }
%"class.std::__shared_count" = type { ptr }
%"class.std::function" = type { %"class.std::_Function_base", ptr }
%"class.std::_Function_base" = type { %"union.std::_Any_data", ptr }
%"union.std::_Any_data" = type { %"union.std::_Nocopy_types" }
%"union.std::_Nocopy_types" = type { { i64, i64 } }
%"class.rocksdb::CacheWrapper" = type { %"class.rocksdb::Cache", %"class.std::shared_ptr" }
%"class.rocksdb::Cache" = type { ptr, %"class.std::shared_ptr.3", %"class.std::function" }
%"class.std::shared_ptr.3" = type { %"class.std::__shared_ptr.4" }
%"class.std::__shared_ptr.4" = type { ptr, %"class.std::__shared_count" }

@_ZN7rocksdb12_GLOBAL__N_16kDummyE = internal constant %"struct.rocksdb::(anonymous namespace)::Dummy" { [7 x i8] c"kDummy\00" }, align 1

; Function Attrs: mustprogress nounwind uwtable
define linkonce_odr noundef ptr @_ZNKSt12__shared_ptrIN7rocksdb5CacheELN9__gnu_cxx12_Lock_policyE2EE3getEv(ptr noundef nonnull align 8 dereferenceable(16) %this) #1 comdat align 2 {
entry:
  %this.addr = alloca ptr, align 8
  store ptr %this, ptr %this.addr, align 8
  %this1 = load ptr, ptr %this.addr, align 8
  %_M_ptr = getelementptr inbounds %"class.std::__shared_ptr", ptr %this1, i32 0, i32 0
  %0 = load ptr, ptr %_M_ptr, align 8
  ret ptr %0
}

; Function Attrs: mustprogress nounwind uwtable
define linkonce_odr noundef ptr @_ZNKSt19__shared_ptr_accessIN7rocksdb5CacheELN9__gnu_cxx12_Lock_policyE2ELb0ELb0EE6_M_getEv(ptr noundef nonnull align 1 dereferenceable(1) %this) #1 comdat align 2 {
entry:
  %this.addr = alloca ptr, align 8
  store ptr %this, ptr %this.addr, align 8
  %this1 = load ptr, ptr %this.addr, align 8
  %call = call noundef ptr @_ZNKSt12__shared_ptrIN7rocksdb5CacheELN9__gnu_cxx12_Lock_policyE2EE3getEv(ptr noundef nonnull align 8 dereferenceable(16) %this1) #14
  ret ptr %call
}

; Function Attrs: mustprogress nounwind uwtable
define linkonce_odr noundef ptr @_ZNKSt19__shared_ptr_accessIN7rocksdb5CacheELN9__gnu_cxx12_Lock_policyE2ELb0ELb0EEptEv(ptr noundef nonnull align 1 dereferenceable(1) %this) #1 comdat align 2 {
entry:
  %this.addr = alloca ptr, align 8
  store ptr %this, ptr %this.addr, align 8
  %this1 = load ptr, ptr %this.addr, align 8
  %call = call noundef ptr @_ZNKSt19__shared_ptr_accessIN7rocksdb5CacheELN9__gnu_cxx12_Lock_policyE2ELb0ELb0EE6_M_getEv(ptr noundef nonnull align 1 dereferenceable(1) %this1) #14
  ret ptr %call
}

; Function Attrs: mustprogress uwtable
define noundef zeroext i1 @_ZN7rocksdb25CacheWithSecondaryAdapter18ProcessDummyResultEPPNS_5Cache6HandleEb(ptr noundef nonnull align 8 dereferenceable(184) %this, ptr noundef %handle, i1 noundef zeroext %erase) #0 align 2 {
entry:
  %retval = alloca i1, align 1
  %this.addr = alloca ptr, align 8
  %handle.addr = alloca ptr, align 8
  %erase.addr = alloca i8, align 1
  store ptr %this, ptr %this.addr, align 8
  store ptr %handle, ptr %handle.addr, align 8
  %frombool = zext i1 %erase to i8
  store i8 %frombool, ptr %erase.addr, align 1
  %this1 = load ptr, ptr %this.addr, align 8
  %0 = load ptr, ptr %handle.addr, align 8
  %1 = load ptr, ptr %0, align 8
  %tobool = icmp ne ptr %1, null
  br i1 %tobool, label %land.lhs.true, label %if.else

land.lhs.true:                                    ; preds = %entry
  %target_ = getelementptr inbounds %"class.rocksdb::CacheWrapper", ptr %this1, i32 0, i32 1
  %call = call noundef ptr @_ZNKSt19__shared_ptr_accessIN7rocksdb5CacheELN9__gnu_cxx12_Lock_policyE2ELb0ELb0EEptEv(ptr noundef nonnull align 1 dereferenceable(1) %target_) #14
  %2 = load ptr, ptr %handle.addr, align 8
  %3 = load ptr, ptr %2, align 8
  %vtable = load ptr, ptr %call, align 8
  %vfn = getelementptr inbounds ptr, ptr %vtable, i64 8
  %4 = load ptr, ptr %vfn, align 8
  %call2 = call noundef ptr %4(ptr noundef nonnull align 8 dereferenceable(56) %call, ptr noundef %3)
  %cmp = icmp eq ptr %call2, @_ZN7rocksdb12_GLOBAL__N_16kDummyE
  br i1 %cmp, label %if.then, label %if.else

if.then:                                          ; preds = %land.lhs.true
  %target_3 = getelementptr inbounds %"class.rocksdb::CacheWrapper", ptr %this1, i32 0, i32 1
  %call4 = call noundef ptr @_ZNKSt19__shared_ptr_accessIN7rocksdb5CacheELN9__gnu_cxx12_Lock_policyE2ELb0ELb0EEptEv(ptr noundef nonnull align 1 dereferenceable(1) %target_3) #14
  %5 = load ptr, ptr %handle.addr, align 8
  %6 = load ptr, ptr %5, align 8
  %7 = load i8, ptr %erase.addr, align 1
  %tobool5 = trunc i8 %7 to i1
  %vtable6 = load ptr, ptr %call4, align 8
  %vfn7 = getelementptr inbounds ptr, ptr %vtable6, i64 7
  %8 = load ptr, ptr %vfn7, align 8
  %call8 = call noundef zeroext i1 %8(ptr noundef nonnull align 8 dereferenceable(56) %call4, ptr noundef %6, i1 noundef zeroext %tobool5)
  %9 = load ptr, ptr %handle.addr, align 8
  store ptr null, ptr %9, align 8
  store i1 true, ptr %retval, align 1
  br label %return

if.else:                                          ; preds = %land.lhs.true, %entry
  store i1 false, ptr %retval, align 1
  br label %return

return:                                           ; preds = %if.else, %if.then
  %10 = load i1, ptr %retval, align 1
  ret i1 %10
}