; Function Attrs: mustprogress uwtable
define noundef zeroext i1 @_ZN7rocksdb25CacheWithSecondaryAdapter18ProcessDummyResultEPPNS_5Cache6HandleEb(ptr nocapture noundef nonnull readonly align 8 dereferenceable(184) %this, ptr nocapture noundef %handle, i1 noundef zeroext %erase) local_unnamed_addr #0 align 2 {
entry:
  %0 = load ptr, ptr %handle, align 8
  %tobool.not = icmp eq ptr %0, null
  br i1 %tobool.not, label %return, label %land.lhs.true

land.lhs.true:                                    ; preds = %entry
  %target_ = getelementptr inbounds i8, ptr %this, i64 56
  %1 = load ptr, ptr %target_, align 8
  %vtable = load ptr, ptr %1, align 8
  %vfn = getelementptr inbounds i8, ptr %vtable, i64 64
  %2 = load ptr, ptr %vfn, align 8
  %call2 = tail call noundef ptr %2(ptr noundef nonnull align 8 dereferenceable(56) %1, ptr noundef nonnull %0)
  %cmp = icmp eq ptr %call2, @_ZN7rocksdb12_GLOBAL__N_16kDummyE
  br i1 %cmp, label %if.then, label %return

if.then:                                          ; preds = %land.lhs.true
  %3 = load ptr, ptr %target_, align 8
  %4 = load ptr, ptr %handle, align 8
  %vtable6 = load ptr, ptr %3, align 8
  %vfn7 = getelementptr inbounds i8, ptr %vtable6, i64 56
  %5 = load ptr, ptr %vfn7, align 8
  %call8 = tail call noundef zeroext i1 %5(ptr noundef nonnull align 8 dereferenceable(56) %3, ptr noundef %4, i1 noundef zeroext %erase)
  store ptr null, ptr %handle, align 8
  br label %return

return:                                           ; preds = %entry, %land.lhs.true, %if.then
  %retval.0 = phi i1 [ true, %if.then ], [ false, %land.lhs.true ], [ false, %entry ]
  ret i1 %retval.0
}